target datalayout = "e-m:e-p270:32:32-p271:32:32-p272:64:64-i64:64-i128:128-f80:128-n8:16:32:64-S128"
target triple = "x86_64-pc-linux-gnu"

%struct.QOSGraphObject = type { ptr, ptr, ptr, ptr, ptr }
%struct.QVirtio9P = type { ptr, ptr }
%struct.QVirtio9PPCI = type { %struct.QVirtioPCIDevice, %struct.QVirtio9P }
%struct.QVirtioPCIDevice = type { %struct.QOSGraphObject, %struct.QVirtioDevice, ptr, %struct.QPCIBar, ptr, i16, i64, i32, i32, i32, i32, i32, i32, i32 }
%struct.QVirtioDevice = type { ptr, i16, i64, i8, i8 }
%struct.QPCIBar = type { i64, i8 }

@.str = private unnamed_addr constant [39 x i8] c"../qemu/tests/qtest/libqos/virtio-9p.c\00", align 1
@alloc = internal global ptr null, align 8
@__func__.virtio_9p_pci_create = private unnamed_addr constant [21 x i8] c"virtio_9p_pci_create\00", align 1
@.str.26 = private unnamed_addr constant [45 x i8] c"interface->vdev->device_type == VIRTIO_ID_9P\00", align 1
@.str.27 = private unnamed_addr constant [3 x i8] c"==\00", align 1

; Function Attrs: nounwind sspstrong uwtable
define internal ptr @virtio_9p_pci_create(ptr noundef %0, ptr noundef %1, ptr noundef %2) #0 {
  %4 = alloca ptr, align 8
  %5 = alloca ptr, align 8
  %6 = alloca ptr, align 8
  %7 = alloca ptr, align 8
  %8 = alloca i64, align 8
  %9 = alloca i64, align 8
  %10 = alloca ptr, align 8
  %11 = alloca ptr, align 8
  %12 = alloca ptr, align 8
  %13 = alloca ptr, align 8
  %14 = alloca i64, align 8
  %15 = alloca i64, align 8
  store ptr %0, ptr %4, align 8
  store ptr %1, ptr %5, align 8
  store ptr %2, ptr %6, align 8
  call void @llvm.lifetime.start.p0(i64 8, ptr %7) #14
  call void @llvm.lifetime.start.p0(i64 8, ptr %8) #14
  store i64 1, ptr %8, align 8
  call void @llvm.lifetime.start.p0(i64 8, ptr %9) #14
  store i64 168, ptr %9, align 8
  call void @llvm.lifetime.start.p0(i64 8, ptr %10) #14
  store ptr null, ptr %10, align 8, !annotation !4
  %16 = load i64, ptr %9, align 8
  %17 = icmp eq i64 %16, 1
  br i1 %17, label %18, label %21

18:                                               ; preds = %3
  %19 = load i64, ptr %8, align 8
  %20 = call noalias ptr @g_malloc0(i64 noundef %19) #17
  store ptr %20, ptr %10, align 8
  br label %42

21:                                               ; preds = %3
  %22 = load i64, ptr %8, align 8
  %23 = call i1 @llvm.is.constant.i64(i64 %22)
  br i1 %23, label %24, label %37

24:                                               ; preds = %21
  %25 = load i64, ptr %9, align 8
  %26 = icmp eq i64 %25, 0
  br i1 %26, label %32, label %27

27:                                               ; preds = %24
  %28 = load i64, ptr %8, align 8
  %29 = load i64, ptr %9, align 8
  %30 = udiv i64 -1, %29
  %31 = icmp ule i64 %28, %30
  br i1 %31, label %32, label %37

32:                                               ; preds = %27, %24
  %33 = load i64, ptr %8, align 8
  %34 = load i64, ptr %9, align 8
  %35 = mul i64 %33, %34
  %36 = call noalias ptr @g_malloc0(i64 noundef %35) #17
  store ptr %36, ptr %10, align 8
  br label %41

37:                                               ; preds = %27, %21
  %38 = load i64, ptr %8, align 8
  %39 = load i64, ptr %9, align 8
  %40 = call noalias ptr @g_malloc0_n(i64 noundef %38, i64 noundef %39) #18
  store ptr %40, ptr %10, align 8
  br label %41

41:                                               ; preds = %37, %32
  br label %42

42:                                               ; preds = %41, %18
  %43 = load ptr, ptr %10, align 8
  store ptr %43, ptr %11, align 8
  call void @llvm.lifetime.end.p0(i64 8, ptr %10) #14
  call void @llvm.lifetime.end.p0(i64 8, ptr %9) #14
  call void @llvm.lifetime.end.p0(i64 8, ptr %8) #14
  %44 = load ptr, ptr %11, align 8
  store ptr %44, ptr %7, align 8
  call void @llvm.lifetime.start.p0(i64 8, ptr %12) #14
  %45 = load ptr, ptr %7, align 8
  %46 = getelementptr inbounds nuw %struct.QVirtio9PPCI, ptr %45, i32 0, i32 1
  store ptr %46, ptr %12, align 8
  call void @llvm.lifetime.start.p0(i64 8, ptr %13) #14
  %47 = load ptr, ptr %7, align 8
  %48 = getelementptr inbounds nuw %struct.QVirtio9PPCI, ptr %47, i32 0, i32 0
  %49 = getelementptr inbounds nuw %struct.QVirtioPCIDevice, ptr %48, i32 0, i32 0
  store ptr %49, ptr %13, align 8
  %50 = load ptr, ptr %7, align 8
  %51 = getelementptr inbounds nuw %struct.QVirtio9PPCI, ptr %50, i32 0, i32 0
  %52 = load ptr, ptr %4, align 8
  %53 = load ptr, ptr %6, align 8
  call void @virtio_pci_init(ptr noundef %51, ptr noundef %52, ptr noundef %53)
  %54 = load ptr, ptr %7, align 8
  %55 = getelementptr inbounds nuw %struct.QVirtio9PPCI, ptr %54, i32 0, i32 0
  %56 = getelementptr inbounds nuw %struct.QVirtioPCIDevice, ptr %55, i32 0, i32 1
  %57 = load ptr, ptr %12, align 8
  %58 = getelementptr inbounds nuw %struct.QVirtio9P, ptr %57, i32 0, i32 0
  store ptr %56, ptr %58, align 8
  %59 = load ptr, ptr %5, align 8
  store ptr %59, ptr @alloc, align 8
  br label %60

60:                                               ; preds = %42
  call void @llvm.lifetime.start.p0(i64 8, ptr %14) #14
  %61 = load ptr, ptr %12, align 8
  %62 = getelementptr inbounds nuw %struct.QVirtio9P, ptr %61, i32 0, i32 0
  %63 = load ptr, ptr %62, align 8
  %64 = getelementptr inbounds nuw %struct.QVirtioDevice, ptr %63, i32 0, i32 1
  %65 = load i16, ptr %64, align 8
  %66 = zext i16 %65 to i64
  store i64 %66, ptr %14, align 8
  call void @llvm.lifetime.start.p0(i64 8, ptr %15) #14
  store i64 9, ptr %15, align 8
  %67 = load i64, ptr %14, align 8
  %68 = load i64, ptr %15, align 8
  %69 = icmp eq i64 %67, %68
  br i1 %69, label %70, label %71

70:                                               ; preds = %60
  br label %76

71:                                               ; preds = %60
  %72 = load i64, ptr %14, align 8
  %73 = uitofp i64 %72 to x86_fp80
  %74 = load i64, ptr %15, align 8
  %75 = uitofp i64 %74 to x86_fp80
  call void @g_assertion_message_cmpnum(ptr noundef null, ptr noundef @.str, i32 noundef 194, ptr noundef @__func__.virtio_9p_pci_create, ptr noundef @.str.26, x86_fp80 noundef %73, ptr noundef @.str.27, x86_fp80 noundef %75, i8 noundef signext 120)
  br label %76

76:                                               ; preds = %71, %70
  call void @llvm.lifetime.end.p0(i64 8, ptr %15) #14
  call void @llvm.lifetime.end.p0(i64 8, ptr %14) #14
  br label %77

77:                                               ; preds = %76
  br label %78

78:                                               ; preds = %77
  %79 = load ptr, ptr %13, align 8
  %80 = getelementptr inbounds nuw %struct.QOSGraphObject, ptr %79, i32 0, i32 3
  store ptr @virtio_9p_pci_destructor, ptr %80, align 8
  %81 = load ptr, ptr %13, align 8
  %82 = getelementptr inbounds nuw %struct.QOSGraphObject, ptr %81, i32 0, i32 2
  store ptr @virtio_9p_pci_start_hw, ptr %82, align 8
  %83 = load ptr, ptr %13, align 8
  %84 = getelementptr inbounds nuw %struct.QOSGraphObject, ptr %83, i32 0, i32 0
  store ptr @virtio_9p_pci_get_driver, ptr %84, align 8
  %85 = load ptr, ptr %13, align 8
  call void @llvm.lifetime.end.p0(i64 8, ptr %13) #14
  call void @llvm.lifetime.end.p0(i64 8, ptr %12) #14
  call void @llvm.lifetime.end.p0(i64 8, ptr %7) #14
  ret ptr %85
}