; Function Attrs: nounwind sspstrong uwtable
define internal noundef ptr @virtio_9p_pci_create(ptr noundef %0, ptr noundef %1, ptr noundef %2) #0 {
  %4 = tail call noalias dereferenceable_or_null(168) ptr @g_malloc0(i64 noundef 168) #15
  %5 = getelementptr inbounds nuw i8, ptr %4, i64 152
  tail call void @virtio_pci_init(ptr noundef %4, ptr noundef %0, ptr noundef %2) #13
  %6 = getelementptr inbounds nuw i8, ptr %4, i64 40
  store ptr %6, ptr %5, align 8
  store ptr %1, ptr @alloc, align 8
  %7 = getelementptr inbounds nuw i8, ptr %4, i64 48
  %8 = load i16, ptr %7, align 8
  %9 = icmp eq i16 %8, 9
  br i1 %9, label %12, label %10

10:                                               ; preds = %3
  %11 = uitofp i16 %8 to x86_fp80
  tail call void @g_assertion_message_cmpnum(ptr noundef null, ptr noundef nonnull @.str, i32 noundef 194, ptr noundef nonnull @__func__.virtio_9p_pci_create, ptr noundef nonnull @.str.26, x86_fp80 noundef %11, ptr noundef nonnull @.str.27, x86_fp80 noundef 0xK40029000000000000000, i8 noundef signext 120) #13
  br label %12

12:                                               ; preds = %3, %10
  %13 = getelementptr inbounds nuw i8, ptr %4, i64 24
  store ptr @virtio_9p_pci_destructor, ptr %13, align 8
  %14 = getelementptr inbounds nuw i8, ptr %4, i64 16
  store ptr @virtio_9p_pci_start_hw, ptr %14, align 8
  store ptr @virtio_9p_pci_get_driver, ptr %4, align 8
  ret ptr %4
}